target datalayout = "e-m:e-p270:32:32-p271:32:32-p272:64:64-i64:64-i128:128-f80:128-n8:16:32:64-S128"
target triple = "x86_64-pc-linux-gnu"

%struct.exr_attr_box2i_t = type { %struct.exr_attr_v2i_t, %struct.exr_attr_v2i_t }
%struct.exr_attr_v2i_t = type { i32, i32 }
%struct.exr_attr_v2f_t = type { float, float }

; Function Attrs: nounwind uwtable
define i32 @exr_initialize_required_attr_simple(ptr noundef %0, i32 noundef %1, i32 noundef %2, i32 noundef %3, i32 noundef %4) #0 {
  %6 = alloca ptr, align 8
  %7 = alloca i32, align 4
  %8 = alloca i32, align 4
  %9 = alloca i32, align 4
  %10 = alloca i32, align 4
  %11 = alloca %struct.exr_attr_box2i_t, align 1
  %12 = alloca %struct.exr_attr_v2f_t, align 1
  store ptr %0, ptr %6, align 8, !tbaa !3
  store i32 %1, ptr %7, align 4, !tbaa !8
  store i32 %2, ptr %8, align 4, !tbaa !8
  store i32 %3, ptr %9, align 4, !tbaa !8
  store i32 %4, ptr %10, align 4, !tbaa !8
  call void @llvm.lifetime.start.p0(i64 16, ptr %11) #8
  %13 = getelementptr inbounds nuw %struct.exr_attr_box2i_t, ptr %11, i32 0, i32 0
  %14 = getelementptr inbounds nuw %struct.exr_attr_v2i_t, ptr %13, i32 0, i32 0
  store i32 0, ptr %14, align 1, !tbaa !57
  %15 = getelementptr inbounds nuw %struct.exr_attr_v2i_t, ptr %13, i32 0, i32 1
  store i32 0, ptr %15, align 1, !tbaa !58
  %16 = getelementptr inbounds nuw %struct.exr_attr_box2i_t, ptr %11, i32 0, i32 1
  %17 = getelementptr inbounds nuw %struct.exr_attr_v2i_t, ptr %16, i32 0, i32 0
  %18 = load i32, ptr %8, align 4, !tbaa !8
  %19 = sub nsw i32 %18, 1
  store i32 %19, ptr %17, align 1, !tbaa !57
  %20 = getelementptr inbounds nuw %struct.exr_attr_v2i_t, ptr %16, i32 0, i32 1
  %21 = load i32, ptr %9, align 4, !tbaa !8
  %22 = sub nsw i32 %21, 1
  store i32 %22, ptr %20, align 1, !tbaa !58
  call void @llvm.lifetime.start.p0(i64 8, ptr %12) #8
  call void @llvm.memset.p0.i64(ptr align 1 %12, i8 0, i64 8, i1 false)
  %23 = load ptr, ptr %6, align 8, !tbaa !3
  %24 = load i32, ptr %7, align 4, !tbaa !8
  %25 = load i32, ptr %10, align 4, !tbaa !8
  %26 = call i32 @exr_initialize_required_attr(ptr noundef %23, i32 noundef %24, ptr noundef %11, ptr noundef %11, float noundef 1.000000e+00, ptr noundef %12, float noundef 1.000000e+00, i32 noundef 0, i32 noundef %25)
  call void @llvm.lifetime.end.p0(i64 8, ptr %12) #8
  call void @llvm.lifetime.end.p0(i64 16, ptr %11) #8
  ret i32 %26
}