; Function Attrs: nounwind uwtable
define i32 @exr_initialize_required_attr_simple(ptr noundef %0, i32 noundef %1, i32 noundef %2, i32 noundef %3, i32 noundef %4) local_unnamed_addr #0 {
  %6 = alloca %struct.exr_attr_box2i_t, align 4
  %7 = alloca %struct.exr_attr_v2f_t, align 8
  call void @llvm.lifetime.start.p0(i64 16, ptr nonnull %6) #6
  store i32 0, ptr %6, align 4, !tbaa !50
  %8 = getelementptr inbounds nuw i8, ptr %6, i64 4
  store i32 0, ptr %8, align 4, !tbaa !51
  %9 = getelementptr inbounds nuw i8, ptr %6, i64 8
  %10 = add nsw i32 %2, -1
  store i32 %10, ptr %9, align 4, !tbaa !50
  %11 = getelementptr inbounds nuw i8, ptr %6, i64 12
  %12 = add nsw i32 %3, -1
  store i32 %12, ptr %11, align 4, !tbaa !51
  call void @llvm.lifetime.start.p0(i64 8, ptr nonnull %7) #6
  store i64 0, ptr %7, align 8
  %13 = call i32 @exr_initialize_required_attr(ptr noundef %0, i32 noundef %1, ptr noundef nonnull %6, ptr noundef nonnull %6, float noundef 1.000000e+00, ptr noundef nonnull %7, float noundef 1.000000e+00, i32 noundef 0, i32 noundef %4)
  call void @llvm.lifetime.end.p0(i64 8, ptr nonnull %7) #6
  call void @llvm.lifetime.end.p0(i64 16, ptr nonnull %6) #6
  ret i32 %13
}